; Function Attrs: nofree norecurse nosync nounwind memory(read, inaccessiblemem: none) uwtable
define i32 @Ssw_StrSimMatchingCountUnmached(ptr noundef readonly captures(none) %0) local_unnamed_addr #0 {
  %2 = getelementptr inbounds nuw i8, ptr %0, i64 32
  %3 = load ptr, ptr %2, align 8, !tbaa !20
  %4 = getelementptr i8, ptr %3, i64 4
  %.val = load i32, ptr %4, align 4, !tbaa !32
  %5 = icmp sgt i32 %.val, 0
  br i1 %5, label %.lr.ph, label %.critedge

.lr.ph:                                           ; preds = %1
  %6 = getelementptr i8, ptr %3, i64 8
  %.val15 = load ptr, ptr %6, align 8, !tbaa !34
  %7 = getelementptr i8, ptr %0, i64 256
  %wide.trip.count = zext nneg i32 %.val to i64
  br label %8

8:                                                ; preds = %.lr.ph, %27
  %indvars.iv = phi i64 [ 0, %.lr.ph ], [ %indvars.iv.next, %27 ]
  %.020 = phi i32 [ 0, %.lr.ph ], [ %.1, %27 ]
  %9 = getelementptr inbounds nuw ptr, ptr %.val15, i64 %indvars.iv
  %10 = load ptr, ptr %9, align 8, !tbaa !35
  %11 = icmp eq ptr %10, null
  br i1 %11, label %27, label %12

12:                                               ; preds = %8
  %13 = getelementptr i8, ptr %10, i64 24
  %.val17 = load i64, ptr %13, align 8
  %14 = trunc i64 %.val17 to i32
  %15 = and i32 %14, 7
  %16 = add nsw i32 %15, -5
  %narrow.i = icmp ult i32 %16, 2
  %17 = and i64 %.val17, 7
  %.not = icmp eq i64 %17, 2
  %or.cond = or i1 %.not, %narrow.i
  br i1 %or.cond, label %18, label %27

18:                                               ; preds = %12
  %.val18 = load ptr, ptr %7, align 8, !tbaa !36
  %.not.i = icmp eq ptr %.val18, null
  br i1 %.not.i, label %Aig_ObjRepr.exit, label %19

19:                                               ; preds = %18
  %20 = getelementptr inbounds nuw i8, ptr %10, i64 36
  %21 = load i32, ptr %20, align 4, !tbaa !37
  %22 = sext i32 %21 to i64
  %23 = getelementptr inbounds ptr, ptr %.val18, i64 %22
  %24 = load ptr, ptr %23, align 8, !tbaa !38
  %25 = icmp eq ptr %24, null
  %26 = zext i1 %25 to i32
  br label %Aig_ObjRepr.exit

Aig_ObjRepr.exit:                                 ; preds = %18, %19
  %.not14 = phi i32 [ %26, %19 ], [ 1, %18 ]
  %spec.select = add nsw i32 %.not14, %.020
  br label %27

27:                                               ; preds = %12, %Aig_ObjRepr.exit, %8
  %.1 = phi i32 [ %.020, %8 ], [ %spec.select, %Aig_ObjRepr.exit ], [ %.020, %12 ]
  %indvars.iv.next = add nuw nsw i64 %indvars.iv, 1
  %exitcond.not = icmp eq i64 %indvars.iv.next, %wide.trip.count
  br i1 %exitcond.not, label %.critedge, label %8, !llvm.loop !84

.critedge:                                        ; preds = %27, %1
  %.0.lcssa = phi i32 [ 0, %1 ], [ %.1, %27 ]
  ret i32 %.0.lcssa
}